target datalayout = "e-m:e-p270:32:32-p271:32:32-p272:64:64-i64:64-i128:128-f80:128-n8:16:32:64-S128"
target triple = "x86_64-pc-linux-gnu"

%struct.ldbState = type { ptr, i32, i32, ptr, ptr, ptr, [64 x i32], i32, i32, i32, ptr, i32, i32, ptr, i64, i32 }
%struct.sdshdr8 = type { i8, i8, i8, [0 x i8] }
%struct.sdshdr16 = type <{ i16, i16, i8, [0 x i8] }>
%struct.sdshdr32 = type <{ i32, i32, i8, [0 x i8] }>
%struct.sdshdr64 = type <{ i64, i64, i8, [0 x i8] }>

@ldb = dso_local global %struct.ldbState zeroinitializer, align 8
@.str.58 = private unnamed_addr constant [5 x i8] c" ...\00", align 1
@.str.59 = private unnamed_addr constant [72 x i8] c"<hint> The above reply was trimmed. Use 'maxlen 0' to disable trimming.\00", align 1

; Function Attrs: nounwind uwtable
define dso_local void @ldbLog(ptr noundef %0) #0 {
  %2 = alloca ptr, align 8
  store ptr %0, ptr %2, align 8, !tbaa !16
  %3 = load ptr, ptr getelementptr inbounds nuw (%struct.ldbState, ptr @ldb, i32 0, i32 3), align 8, !tbaa !34
  %4 = load ptr, ptr %2, align 8, !tbaa !16
  %5 = call ptr @listAddNodeTail(ptr noundef %3, ptr noundef %4)
  ret void
}

; Function Attrs: inlinehint nounwind uwtable
define internal i64 @sdslen(ptr noundef %0) #6 {
  %2 = alloca i64, align 8
  %3 = alloca ptr, align 8
  %4 = alloca i8, align 1
  %5 = alloca i32, align 4
  store ptr %0, ptr %3, align 8, !tbaa !16
  call void @llvm.lifetime.start.p0(i64 1, ptr %4) #14
  %6 = load ptr, ptr %3, align 8, !tbaa !16
  %7 = getelementptr inbounds i8, ptr %6, i64 -1
  %8 = load i8, ptr %7, align 1, !tbaa !21
  store i8 %8, ptr %4, align 1, !tbaa !21
  %9 = load i8, ptr %4, align 1, !tbaa !21
  %10 = zext i8 %9 to i32
  %11 = and i32 %10, 7
  switch i32 %11, label %40 [
    i32 0, label %12
    i32 1, label %17
    i32 2, label %23
    i32 3, label %29
    i32 4, label %35
  ]

12:                                               ; preds = %1
  %13 = load i8, ptr %4, align 1, !tbaa !21
  %14 = zext i8 %13 to i32
  %15 = ashr i32 %14, 3
  %16 = sext i32 %15 to i64
  store i64 %16, ptr %2, align 8
  store i32 1, ptr %5, align 4
  br label %41

17:                                               ; preds = %1
  %18 = load ptr, ptr %3, align 8, !tbaa !16
  %19 = getelementptr inbounds i8, ptr %18, i64 -3
  %20 = getelementptr inbounds nuw %struct.sdshdr8, ptr %19, i32 0, i32 0
  %21 = load i8, ptr %20, align 1, !tbaa !21
  %22 = zext i8 %21 to i64
  store i64 %22, ptr %2, align 8
  store i32 1, ptr %5, align 4
  br label %41

23:                                               ; preds = %1
  %24 = load ptr, ptr %3, align 8, !tbaa !16
  %25 = getelementptr inbounds i8, ptr %24, i64 -5
  %26 = getelementptr inbounds nuw %struct.sdshdr16, ptr %25, i32 0, i32 0
  %27 = load i16, ptr %26, align 1, !tbaa !109
  %28 = zext i16 %27 to i64
  store i64 %28, ptr %2, align 8
  store i32 1, ptr %5, align 4
  br label %41

29:                                               ; preds = %1
  %30 = load ptr, ptr %3, align 8, !tbaa !16
  %31 = getelementptr inbounds i8, ptr %30, i64 -9
  %32 = getelementptr inbounds nuw %struct.sdshdr32, ptr %31, i32 0, i32 0
  %33 = load i32, ptr %32, align 1, !tbaa !19
  %34 = zext i32 %33 to i64
  store i64 %34, ptr %2, align 8
  store i32 1, ptr %5, align 4
  br label %41

35:                                               ; preds = %1
  %36 = load ptr, ptr %3, align 8, !tbaa !16
  %37 = getelementptr inbounds i8, ptr %36, i64 -17
  %38 = getelementptr inbounds nuw %struct.sdshdr64, ptr %37, i32 0, i32 0
  %39 = load i64, ptr %38, align 1, !tbaa !18
  store i64 %39, ptr %2, align 8
  store i32 1, ptr %5, align 4
  br label %41

40:                                               ; preds = %1
  store i64 0, ptr %2, align 8
  store i32 1, ptr %5, align 4
  br label %41

41:                                               ; preds = %40, %35, %29, %23, %17, %12
  call void @llvm.lifetime.end.p0(i64 1, ptr %4) #14
  %42 = load i64, ptr %2, align 8
  ret i64 %42
}

; Function Attrs: nounwind uwtable
define dso_local void @ldbLogWithMaxLen(ptr noundef %0) #0 {
  %2 = alloca ptr, align 8
  %3 = alloca i32, align 4
  store ptr %0, ptr %2, align 8, !tbaa !16
  call void @llvm.lifetime.start.p0(i64 4, ptr %3) #14
  store i32 0, ptr %3, align 4, !tbaa !19
  %4 = load i64, ptr getelementptr inbounds nuw (%struct.ldbState, ptr @ldb, i32 0, i32 14), align 8, !tbaa !154
  %5 = icmp ne i64 %4, 0
  br i1 %5, label %6, label %17

6:                                                ; preds = %1
  %7 = load ptr, ptr %2, align 8, !tbaa !16
  %8 = call i64 @sdslen(ptr noundef %7)
  %9 = load i64, ptr getelementptr inbounds nuw (%struct.ldbState, ptr @ldb, i32 0, i32 14), align 8, !tbaa !154
  %10 = icmp ugt i64 %8, %9
  br i1 %10, label %11, label %17

11:                                               ; preds = %6
  %12 = load ptr, ptr %2, align 8, !tbaa !16
  %13 = load i64, ptr getelementptr inbounds nuw (%struct.ldbState, ptr @ldb, i32 0, i32 14), align 8, !tbaa !154
  %14 = sub i64 %13, 1
  call void @sdsrange(ptr noundef %12, i64 noundef 0, i64 noundef %14)
  %15 = load ptr, ptr %2, align 8, !tbaa !16
  %16 = call ptr @sdscatlen(ptr noundef %15, ptr noundef @.str.58, i64 noundef 4)
  store ptr %16, ptr %2, align 8, !tbaa !16
  store i32 1, ptr %3, align 4, !tbaa !19
  br label %17

17:                                               ; preds = %11, %6, %1
  %18 = load ptr, ptr %2, align 8, !tbaa !16
  call void @ldbLog(ptr noundef %18)
  %19 = load i32, ptr %3, align 4, !tbaa !19
  %20 = icmp ne i32 %19, 0
  br i1 %20, label %21, label %26

21:                                               ; preds = %17
  %22 = load i32, ptr getelementptr inbounds nuw (%struct.ldbState, ptr @ldb, i32 0, i32 15), align 8, !tbaa !155
  %23 = icmp eq i32 %22, 0
  br i1 %23, label %24, label %26

24:                                               ; preds = %21
  store i32 1, ptr getelementptr inbounds nuw (%struct.ldbState, ptr @ldb, i32 0, i32 15), align 8, !tbaa !155
  %25 = call ptr @sdsnew(ptr noundef @.str.59)
  call void @ldbLog(ptr noundef %25)
  br label %26

26:                                               ; preds = %24, %21, %17
  call void @llvm.lifetime.end.p0(i64 4, ptr %3) #14
  ret void
}