; Function Attrs: nounwind uwtable
define dso_local void @ldbLogWithMaxLen(ptr noundef %0) local_unnamed_addr #0 {
  %2 = load i64, ptr getelementptr inbounds nuw (i8, ptr @ldb, i64 336), align 8, !tbaa !141
  %.not = icmp eq i64 %2, 0
  br i1 %.not, label %sdslen.exit.thread, label %3

3:                                                ; preds = %1
  %4 = getelementptr inbounds i8, ptr %0, i64 -1
  %5 = load i8, ptr %4, align 1, !tbaa !13
  %6 = zext i8 %5 to i32
  %7 = and i32 %6, 7
  switch i32 %7, label %sdslen.exit.thread [
    i32 0, label %8
    i32 1, label %11
    i32 2, label %15
    i32 3, label %19
    i32 4, label %23
  ]

8:                                                ; preds = %3
  %9 = lshr i32 %6, 3
  %10 = zext nneg i32 %9 to i64
  br label %sdslen.exit

11:                                               ; preds = %3
  %12 = getelementptr inbounds i8, ptr %0, i64 -3
  %13 = load i8, ptr %12, align 1, !tbaa !13
  %14 = zext i8 %13 to i64
  br label %sdslen.exit

15:                                               ; preds = %3
  %16 = getelementptr inbounds i8, ptr %0, i64 -5
  %17 = load i16, ptr %16, align 1, !tbaa !94
  %18 = zext i16 %17 to i64
  br label %sdslen.exit

19:                                               ; preds = %3
  %20 = getelementptr inbounds i8, ptr %0, i64 -9
  %21 = load i32, ptr %20, align 1, !tbaa !91
  %22 = zext i32 %21 to i64
  br label %sdslen.exit

23:                                               ; preds = %3
  %24 = getelementptr inbounds i8, ptr %0, i64 -17
  %25 = load i64, ptr %24, align 1, !tbaa !95
  br label %sdslen.exit

sdslen.exit:                                      ; preds = %8, %11, %15, %19, %23
  %.0.i = phi i64 [ %25, %23 ], [ %22, %19 ], [ %18, %15 ], [ %14, %11 ], [ %10, %8 ]
  %26 = icmp ugt i64 %.0.i, %2
  br i1 %26, label %27, label %sdslen.exit.thread

27:                                               ; preds = %sdslen.exit
  %28 = add i64 %2, -1
  tail call void @sdsrange(ptr noundef nonnull %0, i64 noundef 0, i64 noundef %28) #19
  %29 = tail call ptr @sdscatlen(ptr noundef nonnull %0, ptr noundef nonnull @.str.58, i64 noundef 4) #19
  br label %sdslen.exit.thread

sdslen.exit.thread:                               ; preds = %3, %27, %sdslen.exit, %1
  %.05 = phi ptr [ %29, %27 ], [ %0, %sdslen.exit ], [ %0, %1 ], [ %0, %3 ]
  %30 = phi i1 [ true, %27 ], [ false, %sdslen.exit ], [ false, %1 ], [ false, %3 ]
  %31 = load ptr, ptr getelementptr inbounds nuw (i8, ptr @ldb, i64 16), align 8, !tbaa !26
  %32 = tail call ptr @listAddNodeTail(ptr noundef %31, ptr noundef %.05) #19
  %33 = load i32, ptr getelementptr inbounds nuw (i8, ptr @ldb, i64 344), align 8
  %34 = icmp eq i32 %33, 0
  %or.cond = select i1 %30, i1 %34, i1 false
  br i1 %or.cond, label %35, label %39

35:                                               ; preds = %sdslen.exit.thread
  store i32 1, ptr getelementptr inbounds nuw (i8, ptr @ldb, i64 344), align 8, !tbaa !142
  %36 = tail call ptr @sdsnew(ptr noundef nonnull @.str.59) #19
  %37 = load ptr, ptr getelementptr inbounds nuw (i8, ptr @ldb, i64 16), align 8, !tbaa !26
  %38 = tail call ptr @listAddNodeTail(ptr noundef %37, ptr noundef %36) #19
  br label %39

39:                                               ; preds = %35, %sdslen.exit.thread
  ret void
}